; Function Attrs: mustprogress nounwind uwtable
define void @_ZN11SecPasswordD2Ev(ptr noundef nonnull align 8 captures(none) dereferenceable(25) initializes((24, 25)) %0) unnamed_addr #2 align 2 personality ptr @__gxx_personality_v0 {
  %2 = getelementptr inbounds nuw i8, ptr %0, i64 24
  store i8 0, ptr %2, align 8, !tbaa !11
  %3 = getelementptr inbounds nuw i8, ptr %0, i64 8
  %4 = load ptr, ptr %3, align 8, !tbaa !10
  %5 = load ptr, ptr %0, align 8, !tbaa !3
  %6 = ptrtoint ptr %4 to i64
  %7 = ptrtoint ptr %5 to i64
  %8 = sub i64 %6, %7
  %.not.i = icmp eq ptr %4, %5
  %9 = icmp eq ptr %5, null
  %or.cond.i = or i1 %.not.i, %9
  br i1 %or.cond.i, label %_ZN11SecPassword5CleanEv.exit, label %.preheader.i.i

.preheader.i.i:                                   ; preds = %1, %.preheader.i.i
  %.010.i.i = phi i64 [ %11, %.preheader.i.i ], [ 0, %1 ]
  %10 = getelementptr inbounds nuw i8, ptr %5, i64 %.010.i.i
  store volatile i8 0, ptr %10, align 1, !tbaa !17
  %11 = add nuw i64 %.010.i.i, 1
  %exitcond.not.i.i = icmp eq i64 %11, %8
  br i1 %exitcond.not.i.i, label %_ZN11SecPassword5CleanEv.exit.loopexit, label %.preheader.i.i, !llvm.loop !18

_ZN11SecPassword5CleanEv.exit.loopexit:           ; preds = %.preheader.i.i
  %.pre = load ptr, ptr %0, align 8, !tbaa !3
  br label %_ZN11SecPassword5CleanEv.exit

_ZN11SecPassword5CleanEv.exit:                    ; preds = %_ZN11SecPassword5CleanEv.exit.loopexit, %1
  %12 = phi ptr [ %.pre, %_ZN11SecPassword5CleanEv.exit.loopexit ], [ %5, %1 ]
  %.not.i.i.i = icmp eq ptr %12, null
  br i1 %.not.i.i.i, label %_ZNSt6vectorIwSaIwEED2Ev.exit, label %13

13:                                               ; preds = %_ZN11SecPassword5CleanEv.exit
  tail call void @_ZdlPv(ptr noundef nonnull %12) #16
  br label %_ZNSt6vectorIwSaIwEED2Ev.exit

_ZNSt6vectorIwSaIwEED2Ev.exit:                    ; preds = %_ZN11SecPassword5CleanEv.exit, %13
  ret void
}